target datalayout = "e-m:e-p270:32:32-p271:32:32-p272:64:64-i64:64-i128:128-f80:128-n8:16:32:64-S128"
target triple = "x86_64-pc-linux-gnu"

%struct.Abc_Ntk_t_ = type { i32, i32, ptr, ptr, ptr, ptr, ptr, ptr, ptr, ptr, ptr, ptr, ptr, [11 x i32], i32, i32, i32, i32, ptr, i32, ptr, ptr, i32, i32, i32, double, i32, %struct.Vec_Int_t_, ptr, ptr, ptr, ptr, ptr, float, i32, ptr, ptr, ptr, ptr, ptr, ptr, ptr, ptr, ptr, ptr, ptr, ptr, ptr, ptr, ptr, ptr, ptr, ptr, ptr, ptr, ptr }
%struct.Vec_Int_t_ = type { i32, i32, ptr }
%struct.Vec_Ptr_t_ = type { i32, i32, ptr }
%struct.Abc_Obj_t_ = type { ptr, ptr, i32, i32, %struct.Vec_Int_t_, %struct.Vec_Int_t_, %union.anon, %union.anon.0 }
%union.anon = type { ptr }
%union.anon.0 = type { ptr }

; Function Attrs: nounwind uwtable
define internal ptr @Vec_PtrEntry(ptr noundef %0, i32 noundef %1) #0 {
  %3 = alloca ptr, align 8
  %4 = alloca i32, align 4
  store ptr %0, ptr %3, align 8
  store i32 %1, ptr %4, align 4
  %5 = load ptr, ptr %3, align 8
  %6 = getelementptr inbounds %struct.Vec_Ptr_t_, ptr %5, i32 0, i32 2
  %7 = load ptr, ptr %6, align 8
  %8 = load i32, ptr %4, align 4
  %9 = sext i32 %8 to i64
  %10 = getelementptr inbounds ptr, ptr %7, i64 %9
  %11 = load ptr, ptr %10, align 8
  ret ptr %11
}

; Function Attrs: nounwind uwtable
define internal i32 @Abc_ObjIsNode(ptr noundef %0) #0 {
  %2 = alloca ptr, align 8
  store ptr %0, ptr %2, align 8
  %3 = load ptr, ptr %2, align 8
  %4 = getelementptr inbounds %struct.Abc_Obj_t_, ptr %3, i32 0, i32 3
  %5 = load i32, ptr %4, align 4
  %6 = and i32 %5, 15
  %7 = icmp eq i32 %6, 7
  %8 = zext i1 %7 to i32
  ret i32 %8
}

; Function Attrs: nounwind uwtable
define internal ptr @Abc_NtkObj(ptr noundef %0, i32 noundef %1) #0 {
  %3 = alloca ptr, align 8
  %4 = alloca i32, align 4
  store ptr %0, ptr %3, align 8
  store i32 %1, ptr %4, align 4
  %5 = load ptr, ptr %3, align 8
  %6 = getelementptr inbounds %struct.Abc_Ntk_t_, ptr %5, i32 0, i32 5
  %7 = load ptr, ptr %6, align 8
  %8 = load i32, ptr %4, align 4
  %9 = call ptr @Vec_PtrEntry(ptr noundef %7, i32 noundef %8)
  ret ptr %9
}

; Function Attrs: nounwind uwtable
define internal i32 @Vec_PtrSize(ptr noundef %0) #0 {
  %2 = alloca ptr, align 8
  store ptr %0, ptr %2, align 8
  %3 = load ptr, ptr %2, align 8
  %4 = getelementptr inbounds %struct.Vec_Ptr_t_, ptr %3, i32 0, i32 1
  %5 = load i32, ptr %4, align 4
  ret i32 %5
}

; Function Attrs: nounwind uwtable
define i32 @Abc_NtkGetCubePairNum(ptr noundef %0) #0 {
  %2 = alloca ptr, align 8
  %3 = alloca ptr, align 8
  %4 = alloca i32, align 4
  %5 = alloca i64, align 8
  %6 = alloca i64, align 8
  store ptr %0, ptr %2, align 8
  store i64 0, ptr %6, align 8
  store i32 0, ptr %4, align 4
  br label %7

7:                                                ; preds = %51, %1
  %8 = load i32, ptr %4, align 4
  %9 = load ptr, ptr %2, align 8
  %10 = getelementptr inbounds %struct.Abc_Ntk_t_, ptr %9, i32 0, i32 5
  %11 = load ptr, ptr %10, align 8
  %12 = call i32 @Vec_PtrSize(ptr noundef %11)
  %13 = icmp slt i32 %8, %12
  br i1 %13, label %14, label %18

14:                                               ; preds = %7
  %15 = load ptr, ptr %2, align 8
  %16 = load i32, ptr %4, align 4
  %17 = call ptr @Abc_NtkObj(ptr noundef %15, i32 noundef %16)
  store ptr %17, ptr %3, align 8
  br label %18

18:                                               ; preds = %14, %7
  %19 = phi i1 [ false, %7 ], [ true, %14 ]
  br i1 %19, label %20, label %54

20:                                               ; preds = %18
  %21 = load ptr, ptr %3, align 8
  %22 = icmp eq ptr %21, null
  br i1 %22, label %27, label %23

23:                                               ; preds = %20
  %24 = load ptr, ptr %3, align 8
  %25 = call i32 @Abc_ObjIsNode(ptr noundef %24)
  %26 = icmp ne i32 %25, 0
  br i1 %26, label %28, label %27

27:                                               ; preds = %23, %20
  br label %50

28:                                               ; preds = %23
  %29 = load ptr, ptr %3, align 8
  %30 = call i32 @Abc_NodeIsConst(ptr noundef %29)
  %31 = icmp ne i32 %30, 0
  br i1 %31, label %32, label %33

32:                                               ; preds = %28
  br label %51

33:                                               ; preds = %28
  %34 = load ptr, ptr %3, align 8
  %35 = getelementptr inbounds %struct.Abc_Obj_t_, ptr %34, i32 0, i32 6
  %36 = load ptr, ptr %35, align 8
  %37 = call i32 @Abc_SopGetCubeNum(ptr noundef %36)
  %38 = sext i32 %37 to i64
  store i64 %38, ptr %5, align 8
  %39 = load i64, ptr %5, align 8
  %40 = icmp ugt i64 %39, 1
  br i1 %40, label %41, label %49

41:                                               ; preds = %33
  %42 = load i64, ptr %5, align 8
  %43 = load i64, ptr %5, align 8
  %44 = sub i64 %43, 1
  %45 = mul i64 %42, %44
  %46 = udiv i64 %45, 2
  %47 = load i64, ptr %6, align 8
  %48 = add i64 %47, %46
  store i64 %48, ptr %6, align 8
  br label %49

49:                                               ; preds = %41, %33
  br label %50

50:                                               ; preds = %49, %27
  br label %51

51:                                               ; preds = %50, %32
  %52 = load i32, ptr %4, align 4
  %53 = add nsw i32 %52, 1
  store i32 %53, ptr %4, align 4
  br label %7, !llvm.loop !15

54:                                               ; preds = %18
  %55 = load i64, ptr %6, align 8
  %56 = icmp ugt i64 %55, 1073741824
  br i1 %56, label %57, label %58

57:                                               ; preds = %54
  br label %60

58:                                               ; preds = %54
  %59 = load i64, ptr %6, align 8
  br label %60

60:                                               ; preds = %58, %57
  %61 = phi i64 [ 1073741824, %57 ], [ %59, %58 ]
  %62 = trunc i64 %61 to i32
  ret i32 %62
}