; Function Attrs: nounwind uwtable
define range(i32 0, 1073741825) i32 @Abc_NtkGetCubePairNum(ptr noundef readonly captures(none) %0) local_unnamed_addr #0 {
  %2 = getelementptr inbounds nuw i8, ptr %0, i64 32
  %3 = load ptr, ptr %2, align 8
  %4 = getelementptr i8, ptr %3, i64 4
  %.val20 = load i32, ptr %4, align 4
  %5 = icmp sgt i32 %.val20, 0
  br i1 %5, label %.lr.ph, label %.critedge

.lr.ph:                                           ; preds = %1, %27
  %indvars.iv = phi i64 [ %indvars.iv.next, %27 ], [ 0, %1 ]
  %6 = phi ptr [ %28, %27 ], [ %3, %1 ]
  %.022 = phi i64 [ %.1, %27 ], [ 0, %1 ]
  %7 = getelementptr i8, ptr %6, i64 8
  %.val18.val = load ptr, ptr %7, align 8
  %8 = getelementptr inbounds nuw ptr, ptr %.val18.val, i64 %indvars.iv
  %9 = load ptr, ptr %8, align 8
  %10 = icmp eq ptr %9, null
  br i1 %10, label %27, label %11

11:                                               ; preds = %.lr.ph
  %12 = getelementptr i8, ptr %9, i64 20
  %.val19 = load i32, ptr %12, align 4
  %13 = and i32 %.val19, 15
  %.not = icmp eq i32 %13, 7
  br i1 %.not, label %14, label %27

14:                                               ; preds = %11
  %15 = tail call i32 @Abc_NodeIsConst(ptr noundef nonnull %9) #28
  %.not17 = icmp eq i32 %15, 0
  br i1 %.not17, label %16, label %27

16:                                               ; preds = %14
  %17 = getelementptr inbounds nuw i8, ptr %9, i64 56
  %18 = load ptr, ptr %17, align 8
  %19 = tail call i32 @Abc_SopGetCubeNum(ptr noundef %18) #28
  %20 = icmp ugt i32 %19, 1
  br i1 %20, label %21, label %27

21:                                               ; preds = %16
  %22 = sext i32 %19 to i64
  %23 = add nsw i64 %22, -1
  %24 = mul nsw i64 %23, %22
  %25 = lshr i64 %24, 1
  %26 = add i64 %25, %.022
  br label %27

27:                                               ; preds = %11, %.lr.ph, %21, %16, %14
  %.1 = phi i64 [ %.022, %.lr.ph ], [ %.022, %14 ], [ %26, %21 ], [ %.022, %16 ], [ %.022, %11 ]
  %indvars.iv.next = add nuw nsw i64 %indvars.iv, 1
  %28 = load ptr, ptr %2, align 8
  %29 = getelementptr i8, ptr %28, i64 4
  %.val = load i32, ptr %29, align 4
  %30 = sext i32 %.val to i64
  %31 = icmp slt i64 %indvars.iv.next, %30
  br i1 %31, label %.lr.ph, label %.critedge, !llvm.loop !15

.critedge:                                        ; preds = %27, %1
  %.0.lcssa = phi i64 [ 0, %1 ], [ %.1, %27 ]
  %32 = tail call i64 @llvm.umin.i64(i64 %.0.lcssa, i64 1073741824)
  %33 = trunc nuw nsw i64 %32 to i32
  ret i32 %33
}